target datalayout = "e-m:e-p270:32:32-p271:32:32-p272:64:64-i64:64-i128:128-f80:128-n8:16:32:64-S128"
target triple = "x86_64-pc-linux-gnu"

%struct._packet_info = type { ptr, ptr, i32, i32, %struct.nstime_t, %struct.nstime_t, %struct.nstime_t, i8, ptr, ptr, ptr, ptr, %struct._address, %struct._address, %struct._address, %struct._address, %struct._address, %struct._address, i32, ptr, i8, [3 x i8], %struct.anon, i32, i32, i32, i32, ptr, i8, ptr, ptr, i16, i16, i32, i32, i16, i32, i32, ptr, ptr, ptr, i8, i8, i16, i16, i16, i32, i16, i16, ptr, ptr, ptr, ptr, ptr, i32, i32 }
%struct.nstime_t = type { i64, i32 }
%struct._address = type { i32, i32, ptr, ptr }
%struct.anon = type { i8, [3 x i8] }
%struct._xmpp_attr_t = type { ptr, ptr, i32, i32, i8 }
%struct._frame_data = type <{ i32, i32, i32, i32, i32, [4 x i8], i64, ptr, ptr, ptr, i8, i16, [5 x i8], %struct.nstime_t, %struct.nstime_t, i32, i32 }>
%struct._xmpp_conv_info_t = type { ptr, ptr, ptr, ptr, i32 }
%struct._xmpp_reqresp_transaction_t = type { i32, i32 }
%struct._xmpp_element_t = type { ptr, ptr, ptr, ptr, ptr, ptr, i32, i32, i8 }

@.str = private unnamed_addr constant [3 x i8] c"id\00", align 1

; Function Attrs: null_pointer_is_valid sspstrong uwtable
define hidden ptr @xmpp_get_attr(ptr noundef %0, ptr noundef %1) #0 {
  %3 = alloca ptr, align 8
  %4 = alloca ptr, align 8
  %5 = alloca ptr, align 8
  store ptr %0, ptr %3, align 8
  store ptr %1, ptr %4, align 8
  call void @llvm.lifetime.start.p0(i64 8, ptr %5) #8
  %6 = load ptr, ptr %3, align 8
  %7 = getelementptr inbounds nuw %struct._xmpp_element_t, ptr %6, i32 0, i32 3
  %8 = load ptr, ptr %7, align 8
  %9 = load ptr, ptr %4, align 8
  %10 = call ptr @g_hash_table_lookup(ptr noundef %8, ptr noundef %9)
  store ptr %10, ptr %5, align 8
  %11 = load ptr, ptr %5, align 8
  %12 = icmp ne ptr %11, null
  br i1 %12, label %19, label %13

13:                                               ; preds = %2
  %14 = load ptr, ptr %3, align 8
  %15 = getelementptr inbounds nuw %struct._xmpp_element_t, ptr %14, i32 0, i32 3
  %16 = load ptr, ptr %15, align 8
  %17 = load ptr, ptr %4, align 8
  %18 = call ptr @g_hash_table_find(ptr noundef %16, ptr noundef @attr_find_pred, ptr noundef %17)
  store ptr %18, ptr %5, align 8
  br label %19

19:                                               ; preds = %13, %2
  %20 = load ptr, ptr %5, align 8
  %21 = icmp ne ptr %20, null
  br i1 %21, label %22, label %25

22:                                               ; preds = %19
  %23 = load ptr, ptr %5, align 8
  %24 = getelementptr inbounds nuw %struct._xmpp_attr_t, ptr %23, i32 0, i32 4
  store i8 1, ptr %24, align 8
  br label %25

25:                                               ; preds = %22, %19
  %26 = load ptr, ptr %5, align 8
  call void @llvm.lifetime.end.p0(i64 8, ptr %5) #8
  ret ptr %26
}

; Function Attrs: null_pointer_is_valid sspstrong uwtable
define hidden void @xmpp_iq_reqresp_track(ptr noundef %0, ptr noundef %1, ptr noundef %2) #0 {
  %4 = alloca ptr, align 8
  %5 = alloca ptr, align 8
  %6 = alloca ptr, align 8
  %7 = alloca ptr, align 8
  %8 = alloca ptr, align 8
  %9 = alloca ptr, align 8
  %10 = alloca i32, align 4
  %11 = alloca ptr, align 8
  store ptr %0, ptr %4, align 8
  store ptr %1, ptr %5, align 8
  store ptr %2, ptr %6, align 8
  call void @llvm.lifetime.start.p0(i64 8, ptr %7) #8
  store ptr null, ptr %7, align 8
  call void @llvm.lifetime.start.p0(i64 8, ptr %8) #8
  call void @llvm.lifetime.start.p0(i64 8, ptr %9) #8
  %12 = load ptr, ptr %5, align 8
  %13 = call ptr @xmpp_get_attr(ptr noundef %12, ptr noundef @.str)
  store ptr %13, ptr %8, align 8
  %14 = load ptr, ptr %8, align 8
  %15 = icmp ne ptr %14, null
  br i1 %15, label %17, label %16

16:                                               ; preds = %3
  store i32 1, ptr %10, align 4
  br label %74

17:                                               ; preds = %3
  %18 = load ptr, ptr %4, align 8
  %19 = getelementptr inbounds nuw %struct._packet_info, ptr %18, i32 0, i32 51
  %20 = load ptr, ptr %19, align 8
  %21 = load ptr, ptr %8, align 8
  %22 = getelementptr inbounds nuw %struct._xmpp_attr_t, ptr %21, i32 0, i32 0
  %23 = load ptr, ptr %22, align 8
  %24 = call noalias ptr @wmem_strdup(ptr noundef %20, ptr noundef %23)
  store ptr %24, ptr %9, align 8
  %25 = load ptr, ptr %4, align 8
  %26 = getelementptr inbounds nuw %struct._packet_info, ptr %25, i32 0, i32 8
  %27 = load ptr, ptr %26, align 8
  %28 = getelementptr inbounds nuw %struct._frame_data, ptr %27, i32 0, i32 11
  %29 = load i16, ptr %28, align 1
  %30 = lshr i16 %29, 3
  %31 = and i16 %30, 1
  %32 = zext i16 %31 to i32
  %33 = icmp ne i32 %32, 0
  br i1 %33, label %67, label %34

34:                                               ; preds = %17
  %35 = load ptr, ptr %6, align 8
  %36 = getelementptr inbounds nuw %struct._xmpp_conv_info_t, ptr %35, i32 0, i32 0
  %37 = load ptr, ptr %36, align 8
  %38 = load ptr, ptr %9, align 8
  %39 = call ptr @wmem_tree_lookup_string(ptr noundef %37, ptr noundef %38, i32 noundef 1)
  store ptr %39, ptr %7, align 8
  %40 = load ptr, ptr %7, align 8
  %41 = icmp ne ptr %40, null
  br i1 %41, label %42, label %48

42:                                               ; preds = %34
  %43 = load ptr, ptr %4, align 8
  %44 = getelementptr inbounds nuw %struct._packet_info, ptr %43, i32 0, i32 3
  %45 = load i32, ptr %44, align 4
  %46 = load ptr, ptr %7, align 8
  %47 = getelementptr inbounds nuw %struct._xmpp_reqresp_transaction_t, ptr %46, i32 0, i32 1
  store i32 %45, ptr %47, align 4
  br label %66

48:                                               ; preds = %34
  call void @llvm.lifetime.start.p0(i64 8, ptr %11) #8
  %49 = call ptr @wmem_file_scope()
  %50 = load ptr, ptr %9, align 8
  %51 = call noalias ptr @wmem_strdup(ptr noundef %49, ptr noundef %50)
  store ptr %51, ptr %11, align 8
  %52 = call ptr @wmem_file_scope()
  %53 = call noalias ptr @wmem_alloc(ptr noundef %52, i64 noundef 8) #9
  store ptr %53, ptr %7, align 8
  %54 = load ptr, ptr %4, align 8
  %55 = getelementptr inbounds nuw %struct._packet_info, ptr %54, i32 0, i32 3
  %56 = load i32, ptr %55, align 4
  %57 = load ptr, ptr %7, align 8
  %58 = getelementptr inbounds nuw %struct._xmpp_reqresp_transaction_t, ptr %57, i32 0, i32 0
  store i32 %56, ptr %58, align 4
  %59 = load ptr, ptr %7, align 8
  %60 = getelementptr inbounds nuw %struct._xmpp_reqresp_transaction_t, ptr %59, i32 0, i32 1
  store i32 0, ptr %60, align 4
  %61 = load ptr, ptr %6, align 8
  %62 = getelementptr inbounds nuw %struct._xmpp_conv_info_t, ptr %61, i32 0, i32 0
  %63 = load ptr, ptr %62, align 8
  %64 = load ptr, ptr %11, align 8
  %65 = load ptr, ptr %7, align 8
  call void @wmem_tree_insert_string(ptr noundef %63, ptr noundef %64, ptr noundef %65, i32 noundef 1)
  call void @llvm.lifetime.end.p0(i64 8, ptr %11) #8
  br label %66

66:                                               ; preds = %48, %42
  br label %73

67:                                               ; preds = %17
  %68 = load ptr, ptr %6, align 8
  %69 = getelementptr inbounds nuw %struct._xmpp_conv_info_t, ptr %68, i32 0, i32 0
  %70 = load ptr, ptr %69, align 8
  %71 = load ptr, ptr %9, align 8
  %72 = call ptr @wmem_tree_lookup_string(ptr noundef %70, ptr noundef %71, i32 noundef 1)
  br label %73

73:                                               ; preds = %67, %66
  store i32 0, ptr %10, align 4
  br label %74

74:                                               ; preds = %73, %16
  call void @llvm.lifetime.end.p0(i64 8, ptr %9) #8
  call void @llvm.lifetime.end.p0(i64 8, ptr %8) #8
  call void @llvm.lifetime.end.p0(i64 8, ptr %7) #8
  %75 = load i32, ptr %10, align 4
  switch i32 %75, label %77 [
    i32 0, label %76
    i32 1, label %76
  ]

76:                                               ; preds = %74, %74
  ret void

77:                                               ; preds = %74
  unreachable
}