; Function Attrs: null_pointer_is_valid sspstrong uwtable
define hidden void @xmpp_iq_reqresp_track(ptr noundef readonly captures(none) %0, ptr noundef readonly captures(none) %1, ptr noundef readonly captures(none) %2) local_unnamed_addr #0 {
  %4 = getelementptr inbounds nuw i8, ptr %1, i64 24
  %5 = load ptr, ptr %4, align 8
  %6 = tail call ptr @g_hash_table_lookup(ptr noundef %5, ptr noundef nonnull @.str)
  %.not.i = icmp eq ptr %6, null
  br i1 %.not.i, label %7, label %10

7:                                                ; preds = %3
  %8 = load ptr, ptr %4, align 8
  %9 = tail call ptr @g_hash_table_find(ptr noundef %8, ptr noundef nonnull @attr_find_pred, ptr noundef nonnull @.str)
  %.not9.i = icmp eq ptr %9, null
  br i1 %.not9.i, label %xmpp_get_attr.exit.thread, label %10

10:                                               ; preds = %7, %3
  %.012.i = phi ptr [ %9, %7 ], [ %6, %3 ]
  %11 = getelementptr inbounds nuw i8, ptr %.012.i, i64 24
  store i8 1, ptr %11, align 8
  %12 = getelementptr inbounds nuw i8, ptr %0, i64 408
  %13 = load ptr, ptr %12, align 8
  %14 = load ptr, ptr %.012.i, align 8
  %15 = tail call noalias ptr @wmem_strdup(ptr noundef %13, ptr noundef %14)
  %16 = getelementptr inbounds nuw i8, ptr %0, i64 80
  %17 = load ptr, ptr %16, align 8
  %18 = getelementptr inbounds nuw i8, ptr %17, i64 57
  %19 = load i16, ptr %18, align 1
  %20 = and i16 %19, 8
  %.not20 = icmp eq i16 %20, 0
  %21 = load ptr, ptr %2, align 8
  %22 = tail call ptr @wmem_tree_lookup_string(ptr noundef %21, ptr noundef %15, i32 noundef 1)
  br i1 %.not20, label %23, label %xmpp_get_attr.exit.thread

23:                                               ; preds = %10
  %.not21 = icmp eq ptr %22, null
  br i1 %.not21, label %28, label %24

24:                                               ; preds = %23
  %25 = getelementptr inbounds nuw i8, ptr %0, i64 20
  %26 = load i32, ptr %25, align 4
  %27 = getelementptr inbounds nuw i8, ptr %22, i64 4
  store i32 %26, ptr %27, align 4
  br label %xmpp_get_attr.exit.thread

28:                                               ; preds = %23
  %29 = tail call ptr @wmem_file_scope()
  %30 = tail call noalias ptr @wmem_strdup(ptr noundef %29, ptr noundef %15)
  %31 = tail call ptr @wmem_file_scope()
  %32 = tail call noalias dereferenceable_or_null(8) ptr @wmem_alloc(ptr noundef %31, i64 noundef 8) #10
  %33 = getelementptr inbounds nuw i8, ptr %0, i64 20
  %34 = load i32, ptr %33, align 4
  store i32 %34, ptr %32, align 4
  %35 = getelementptr inbounds nuw i8, ptr %32, i64 4
  store i32 0, ptr %35, align 4
  %36 = load ptr, ptr %2, align 8
  tail call void @wmem_tree_insert_string(ptr noundef %36, ptr noundef %30, ptr noundef %32, i32 noundef 1)
  br label %xmpp_get_attr.exit.thread

xmpp_get_attr.exit.thread:                        ; preds = %10, %7, %28, %24
  ret void
}